target datalayout = "e-m:e-p270:32:32-p271:32:32-p272:64:64-i64:64-i128:128-f80:128-n8:16:32:64-S128"
target triple = "x86_64-pc-linux-gnu"

@.str.666 = private unnamed_addr constant [26 x i8] c"Virtual Network Computing\00", align 1
@.str.667 = private unnamed_addr constant [4 x i8] c"VNC\00", align 1
@.str.668 = private unnamed_addr constant [4 x i8] c"vnc\00", align 1
@proto_vnc = internal global i32 0, align 4
@vnc_handle = internal global ptr null, align 8
@.str.669 = private unnamed_addr constant [10 x i8] c"desegment\00", align 1
@.str.670 = private unnamed_addr constant [56 x i8] c"Reassemble VNC messages spanning multiple TCP segments.\00", align 1
@.str.671 = private unnamed_addr constant [205 x i8] c"Whether the VNC dissector should reassemble messages spanning multiple TCP segments.  To use this option, you must also enable \22Allow subdissectors to reassemble TCP streams\22 in the TCP protocol settings.\00", align 1
@vnc_preference_desegment = internal global i8 1, align 1

; Function Attrs: null_pointer_is_valid sspstrong uwtable
define hidden void @proto_register_vnc() #0 {
  %1 = alloca ptr, align 8
  %2 = alloca ptr, align 8
  call void @llvm.lifetime.start.p0(i64 8, ptr %1) #5
  call void @llvm.lifetime.start.p0(i64 8, ptr %2) #5
  %3 = call i32 @proto_register_protocol(ptr noundef @.str.666, ptr noundef @.str.667, ptr noundef @.str.668)
  store i32 %3, ptr @proto_vnc, align 4
  %4 = load i32, ptr @proto_vnc, align 4
  %5 = call ptr @register_dissector(ptr noundef @.str.668, ptr noundef @dissect_vnc, i32 noundef %4)
  store ptr %5, ptr @vnc_handle, align 8
  %6 = load i32, ptr @proto_vnc, align 4
  call void @proto_register_field_array(i32 noundef %6, ptr noundef @proto_register_vnc.hf, i32 noundef 238)
  call void @proto_register_subtree_array(ptr noundef @proto_register_vnc.ett, i32 noundef 18)
  %7 = load i32, ptr @proto_vnc, align 4
  %8 = call ptr @expert_register_protocol(i32 noundef %7)
  store ptr %8, ptr %2, align 8
  %9 = load ptr, ptr %2, align 8
  call void @expert_register_field_array(ptr noundef %9, ptr noundef @proto_register_vnc.ei, i32 noundef 11)
  %10 = load i32, ptr @proto_vnc, align 4
  %11 = call ptr @prefs_register_protocol(i32 noundef %10, ptr noundef @apply_vnc_prefs)
  store ptr %11, ptr %1, align 8
  %12 = load ptr, ptr %1, align 8
  call void @prefs_register_bool_preference(ptr noundef %12, ptr noundef @.str.669, ptr noundef @.str.670, ptr noundef @.str.671, ptr noundef @vnc_preference_desegment)
  call void @llvm.lifetime.end.p0(i64 8, ptr %2) #5
  call void @llvm.lifetime.end.p0(i64 8, ptr %1) #5
  ret void
}