; Function Attrs: null_pointer_is_valid sspstrong uwtable
define hidden void @proto_register_vnc() local_unnamed_addr #0 {
  %1 = tail call i32 @proto_register_protocol(ptr noundef nonnull @.str.666, ptr noundef nonnull @.str.667, ptr noundef nonnull @.str.668)
  store i32 %1, ptr @proto_vnc, align 4
  %2 = tail call ptr @register_dissector(ptr noundef nonnull @.str.668, ptr noundef nonnull @dissect_vnc, i32 noundef %1)
  store ptr %2, ptr @vnc_handle, align 8
  %3 = load i32, ptr @proto_vnc, align 4
  tail call void @proto_register_field_array(i32 noundef %3, ptr noundef nonnull @proto_register_vnc.hf, i32 noundef 238)
  tail call void @proto_register_subtree_array(ptr noundef nonnull @proto_register_vnc.ett, i32 noundef 18)
  %4 = load i32, ptr @proto_vnc, align 4
  %5 = tail call ptr @expert_register_protocol(i32 noundef %4)
  tail call void @expert_register_field_array(ptr noundef %5, ptr noundef nonnull @proto_register_vnc.ei, i32 noundef 11)
  %6 = load i32, ptr @proto_vnc, align 4
  %7 = tail call ptr @prefs_register_protocol(i32 noundef %6, ptr noundef nonnull @apply_vnc_prefs)
  tail call void @prefs_register_bool_preference(ptr noundef %7, ptr noundef nonnull @.str.669, ptr noundef nonnull @.str.670, ptr noundef nonnull @.str.671, ptr noundef nonnull @vnc_preference_desegment)
  ret void
}